Certificate:
    Data:
        Version: 3 (0x2)
        Serial Number:
            c3:f0:6f:32:81:3b:8d:2c:19:37:1d:63:02:db:34:10
        Signature Algorithm: sha256WithRSAEncryption
        Issuer: CN=Easy-RSA CA
        Validity
            Not Before: Aug 15 09:38:32 2020 GMT
            Not After : Jul 22 09:38:32 2120 GMT
        Subject: CN=vpn-server
        Subject Public Key Info:
            Public Key Algorithm: rsaEncryption
                RSA Public-Key: (2048 bit)
                Modulus:
                    00:ae:b8:d5:9e:1e:f6:08:48:50:28:ef:fd:57:b7:
                    6a:65:4a:d7:f2:99:c0:06:b4:c2:1d:cf:6e:0a:2d:
                    75:b8:dd:f6:8f:4d:19:24:60:74:ef:06:fc:c4:9c:
                    65:57:d4:f4:2e:a2:be:8e:f1:ca:51:ac:ee:39:cc:
                    71:65:b0:01:f9:f6:92:f3:de:18:06:97:2c:b3:83:
                    da:c7:b0:55:ab:be:90:11:2a:ae:2d:d5:a9:04:c4:
                    43:10:2a:e1:7b:75:de:c0:cf:fa:3b:76:3a:4c:be:
                    d9:c1:27:1b:6a:44:a5:6d:76:b1:86:9e:0d:33:e8:
                    54:54:0b:e2:1e:c0:ed:7f:63:c7:d3:97:b0:f1:0e:
                    0e:09:db:d7:d1:c8:57:de:e2:48:d5:8f:0e:17:99:
                    de:4d:66:a1:e7:eb:6f:a4:53:bc:b0:d1:37:97:7a:
                    96:83:89:36:11:aa:36:eb:fc:9e:a7:fa:65:90:75:
                    77:f3:ef:e2:2e:80:30:00:78:cf:e9:75:f0:4a:b8:
                    bb:11:f3:5a:51:bd:25:32:27:30:3d:a4:e3:c8:93:
                    cf:35:45:3e:7f:37:f6:71:a8:ee:4b:03:39:dc:1d:
                    2d:e0:6e:4c:4e:0f:7d:ff:ec:82:70:a7:5b:82:54:
                    c0:69:6d:0f:e1:75:c1:91:e7:d9:8c:3f:79:65:32:
                    d9:5d
                Exponent: 65537 (0x10001)
        X509v3 extensions:
            X509v3 Basic Constraints: 
                CA:FALSE
            X509v3 Subject Key Identifier: 
                BC:4B:32:C9:25:2F:3F:CB:59:BA:CC:52:E6:5C:30:9D:2A:F7:CE:28
            X509v3 Authority Key Identifier: 
                keyid:38:2B:61:F5:F5:14:15:65:81:B3:60:0C:25:ED:B2:8C:95:2C:D0:82
                DirName:/CN=Easy-RSA CA
                serial:0E:D3:67:E7:2C:97:95:B1:6A:52:83:60:AA:4E:B6:6A:24:E3:A8:8F

            X509v3 Extended Key Usage: 
                TLS Web Server Authentication
            X509v3 Key Usage: 
                Digital Signature, Key Encipherment
            X509v3 Subject Alternative Name: 
                DNS:vpn-server
    Signature Algorithm: sha256WithRSAEncryption
         6a:f7:e3:39:ce:1e:4e:55:b2:ba:3b:51:d4:b2:69:77:c1:b1:
         71:6d:53:da:62:d6:b4:23:e6:eb:78:f8:80:4c:f0:bd:1a:84:
         97:2c:93:a9:88:54:03:61:5e:56:b3:1e:0f:3c:4e:b4:1f:b0:
         2b:54:ba:fc:4c:ce:49:77:af:30:8f:7f:b5:f7:1c:98:ef:d5:
         25:dd:1f:81:0b:9c:be:2c:02:03:b4:a6:aa:09:e3:13:e4:c9:
         6c:69:c9:d9:3b:8e:81:e0:4b:4c:1f:64:72:04:51:96:97:72:
         8f:a4:ef:c0:03:ab:9c:8d:bc:ba:9a:ab:db:bc:35:8b:a1:a9:
         04:be:d6:a0:92:89:cf:fc:df:7b:53:b5:9e:06:30:92:84:40:
         e6:2b:0d:2e:ed:94:dc:58:40:a6:74:28:d2:d8:cf:e7:47:2d:
         99:31:c7:ca:c7:5f:0a:64:c3:25:18:6d:65:42:60:1e:8f:22:
         1a:da:13:92:e3:1d:00:d7:d0:73:78:ae:40:3d:57:da:ec:4e:
         a4:65:c8:94:fc:b5:2f:70:3f:f8:3a:bc:94:18:1e:e6:a0:55:
         b9:6e:bf:0a:ef:1a:c2:bf:af:50:9f:18:68:0b:98:b1:a3:bd:
         bc:01:79:b7:30:ff:1f:93:bd:a8:54:8a:ae:23:08:e8:26:fb:
         c7:cb:ca:a1
-----BEGIN CERTIFICATE-----
MIIDcjCCAlqgAwIBAgIRAMPwbzKBO40sGTcdYwLbNBAwDQYJKoZIhvcNAQELBQAw
FjEUMBIGA1UEAwwLRWFzeS1SU0EgQ0EwIBcNMjAwODE1MDkzODMyWhgPMjEyMDA3
MjIwOTM4MzJaMBUxEzARBgNVBAMMCnZwbi1zZXJ2ZXIwggEiMA0GCSqGSIb3DQEB
AQUAA4IBDwAwggEKAoIBAQCuuNWeHvYISFAo7/1Xt2plStfymcAGtMIdz24KLXW4
3faPTRkkYHTvBvzEnGVX1PQuor6O8cpRrO45zHFlsAH59pLz3hgGlyyzg9rHsFWr
vpARKq4t1akExEMQKuF7dd7Az/o7djpMvtnBJxtqRKVtdrGGng0z6FRUC+IewO1/
Y8fTl7DxDg4J29fRyFfe4kjVjw4Xmd5NZqHn62+kU7yw0TeXepaDiTYRqjbr/J6n
+mWQdXfz7+IugDAAeM/pdfBKuLsR81pRvSUyJzA9pOPIk881RT5/N/ZxqO5LAznc
HS3gbkxOD33/7IJwp1uCVMBpbQ/hdcGR59mMP3llMtldAgMBAAGjgbkwgbYwCQYD
VR0TBAIwADAdBgNVHQ4EFgQUvEsyySUvP8tZusxS5lwwnSr3zigwUQYDVR0jBEow
SIAUOCth9fUUFWWBs2AMJe2yjJUs0IKhGqQYMBYxFDASBgNVBAMMC0Vhc3ktUlNB
IENBghQO02fnLJeVsWpSg2CqTrZqJOOojzATBgNVHSUEDDAKBggrBgEFBQcDATAL
BgNVHQ8EBAMCBaAwFQYDVR0RBA4wDIIKdnBuLXNlcnZlcjANBgkqhkiG9w0BAQsF
AAOCAQEAavfjOc4eTlWyujtR1LJpd8GxcW1T2mLWtCPm63j4gEzwvRqElyyTqYhU
A2FeVrMeDzxOtB+wK1S6/EzOSXevMI9/tfccmO/VJd0fgQucviwCA7SmqgnjE+TJ
bGnJ2TuOgeBLTB9kcgRRlpdyj6TvwAOrnI28upqr27w1i6GpBL7WoJKJz/zfe1O1
ngYwkoRA5isNLu2U3FhApnQo0tjP50ctmTHHysdfCmTDJRhtZUJgHo8iGtoTkuMd
ANfQc3iuQD1X2uxOpGXIlPy1L3A/+Dq8lBge5qBVuW6/Cu8awr+vUJ8YaAuYsaO9
vAF5tzD/H5O9qFSKriMI6Cb7x8vKoQ==
-----END CERTIFICATE-----
