Certificate:
    Data:
        Version: 3 (0x2)
        Serial Number:
            99:1e:da:b3:03:4b:f1:86:bf:1c:cc:c6:54:28:32:f4
        Signature Algorithm: sha256WithRSAEncryption
        Issuer: CN=Easy-RSA CA
        Validity
            Not Before: Aug 15 09:51:23 2020 GMT
            Not After : Jul 22 09:51:23 2120 GMT
        Subject: CN=binhfile-ios-1
        Subject Public Key Info:
            Public Key Algorithm: rsaEncryption
                RSA Public-Key: (2048 bit)
                Modulus:
                    00:bb:30:15:5d:7c:90:a4:07:fb:ec:7c:09:0a:e5:
                    36:1a:b7:bd:6b:6c:18:55:a2:e8:20:3d:a7:15:b2:
                    66:6f:51:6a:4a:46:27:0f:c3:d7:c1:90:f6:e6:3c:
                    50:31:a3:77:60:dc:59:7b:e0:ef:c4:fb:83:52:e3:
                    6b:c3:4f:73:62:99:f1:3f:03:34:2d:3e:db:f0:e7:
                    b9:bd:fc:f0:e9:e0:c2:fc:e7:5a:f3:4b:24:6d:d8:
                    ce:73:61:8f:2d:9e:99:ea:37:6a:f9:cc:73:fb:38:
                    9f:04:f1:d3:69:39:ed:74:fd:7c:63:63:8a:92:d5:
                    20:08:5e:b6:d0:0f:12:5b:ed:f6:1b:06:15:d0:36:
                    f7:86:6e:37:11:86:83:e0:49:38:95:84:d9:b5:78:
                    37:77:aa:cb:af:f6:fc:9a:9d:51:ec:1a:fe:5a:3f:
                    68:cb:1e:9c:07:b1:15:dd:ce:ef:0a:86:7c:b0:73:
                    27:18:b2:14:6a:fe:09:f6:0a:3f:d7:9a:1b:29:d9:
                    d6:de:12:ff:76:8b:70:8a:34:d1:9a:e1:ce:b7:0a:
                    8e:c0:01:7a:8a:0f:a2:29:29:a9:d5:3e:70:9b:59:
                    55:af:10:be:91:32:7a:a8:8d:15:bd:e9:7a:18:27:
                    05:c3:1b:4b:a9:39:f0:f9:af:cb:d7:56:c7:75:2f:
                    1c:bb
                Exponent: 65537 (0x10001)
        X509v3 extensions:
            X509v3 Basic Constraints: 
                CA:FALSE
            X509v3 Subject Key Identifier: 
                8E:E4:F7:23:22:85:07:84:E6:29:80:AF:63:48:0F:DE:4B:85:1E:AA
            X509v3 Authority Key Identifier: 
                keyid:38:2B:61:F5:F5:14:15:65:81:B3:60:0C:25:ED:B2:8C:95:2C:D0:82
                DirName:/CN=Easy-RSA CA
                serial:0E:D3:67:E7:2C:97:95:B1:6A:52:83:60:AA:4E:B6:6A:24:E3:A8:8F

            X509v3 Extended Key Usage: 
                TLS Web Client Authentication
            X509v3 Key Usage: 
                Digital Signature
    Signature Algorithm: sha256WithRSAEncryption
         15:de:9c:b9:9e:ef:2a:c4:51:76:13:a1:f3:fe:36:d9:c8:30:
         26:3f:1d:54:c3:ed:ce:ba:8d:40:bc:2c:64:a8:23:d5:f0:0e:
         15:0c:d0:77:d1:f0:4b:06:9f:42:c1:eb:3b:05:92:81:0e:7d:
         ab:96:43:69:74:89:3b:11:6d:0e:50:40:db:9f:92:6a:b5:48:
         2a:e4:a8:17:47:78:18:27:0f:5f:46:29:d6:63:f2:84:51:36:
         a4:96:50:94:94:bc:49:39:b2:3e:e6:b3:c6:4f:45:be:f2:29:
         5a:28:9c:0b:0c:a4:3a:3a:1f:ea:4f:c7:81:52:ab:53:aa:0c:
         df:da:2a:8d:24:d2:34:53:cd:18:21:d4:0b:27:a0:82:e2:05:
         e5:19:b2:90:13:52:b3:76:46:00:bc:dd:d5:0e:45:16:f5:fc:
         63:c3:20:e4:a0:95:52:45:b5:b6:ae:6a:43:d6:cb:ad:c2:9a:
         e8:fd:d9:6f:83:f7:35:9c:57:c2:10:5c:4a:65:51:94:04:c0:
         94:62:09:37:3c:fc:ad:56:16:bd:0f:f8:01:a9:e8:0c:7c:f3:
         51:3e:be:e0:92:2f:36:f3:79:50:4f:7e:5e:17:3b:0a:3f:41:
         09:bb:12:54:a2:71:df:21:4f:07:4a:e3:c8:0e:9b:ad:3d:da:
         f4:b4:2e:df
-----BEGIN CERTIFICATE-----
MIIDXzCCAkegAwIBAgIRAJke2rMDS/GGvxzMxlQoMvQwDQYJKoZIhvcNAQELBQAw
FjEUMBIGA1UEAwwLRWFzeS1SU0EgQ0EwIBcNMjAwODE1MDk1MTIzWhgPMjEyMDA3
MjIwOTUxMjNaMBkxFzAVBgNVBAMMDmJpbmhmaWxlLWlvcy0xMIIBIjANBgkqhkiG
9w0BAQEFAAOCAQ8AMIIBCgKCAQEAuzAVXXyQpAf77HwJCuU2Gre9a2wYVaLoID2n
FbJmb1FqSkYnD8PXwZD25jxQMaN3YNxZe+DvxPuDUuNrw09zYpnxPwM0LT7b8Oe5
vfzw6eDC/Oda80skbdjOc2GPLZ6Z6jdq+cxz+zifBPHTaTntdP18Y2OKktUgCF62
0A8SW+32GwYV0Db3hm43EYaD4Ek4lYTZtXg3d6rLr/b8mp1R7Br+Wj9oyx6cB7EV
3c7vCoZ8sHMnGLIUav4J9go/15obKdnW3hL/dotwijTRmuHOtwqOwAF6ig+iKSmp
1T5wm1lVrxC+kTJ6qI0Vvel6GCcFwxtLqTnw+a/L11bHdS8cuwIDAQABo4GiMIGf
MAkGA1UdEwQCMAAwHQYDVR0OBBYEFI7k9yMihQeE5imAr2NID95LhR6qMFEGA1Ud
IwRKMEiAFDgrYfX1FBVlgbNgDCXtsoyVLNCCoRqkGDAWMRQwEgYDVQQDDAtFYXN5
LVJTQSBDQYIUDtNn5yyXlbFqUoNgqk62aiTjqI8wEwYDVR0lBAwwCgYIKwYBBQUH
AwIwCwYDVR0PBAQDAgeAMA0GCSqGSIb3DQEBCwUAA4IBAQAV3py5nu8qxFF2E6Hz
/jbZyDAmPx1Uw+3Ouo1AvCxkqCPV8A4VDNB30fBLBp9Cwes7BZKBDn2rlkNpdIk7
EW0OUEDbn5JqtUgq5KgXR3gYJw9fRinWY/KEUTakllCUlLxJObI+5rPGT0W+8ila
KJwLDKQ6Oh/qT8eBUqtTqgzf2iqNJNI0U80YIdQLJ6CC4gXlGbKQE1KzdkYAvN3V
DkUW9fxjwyDkoJVSRbW2rmpD1sutwpro/dlvg/c1nFfCEFxKZVGUBMCUYgk3PPyt
Vha9D/gBqegMfPNRPr7gki8283lQT35eFzsKP0EJuxJUonHfIU8HSuPIDputPdr0
tC7f
-----END CERTIFICATE-----
